target datalayout = "e-m:e-p270:32:32-p271:32:32-p272:64:64-i64:64-i128:128-f80:128-n8:16:32:64-S128"
target triple = "x86_64-pc-linux-gnu"

%union.jvalue = type { i64 }
%"class.ConstantTable::Constant" = type <{ i8, i8, [2 x i8], i32, %union.anon, i32, float, i8, [7 x i8] }>
%union.anon = type { %union.jvalue }
%class.GrowableArrayBase = type { i32, i32 }
%class.GrowableArrayView = type { %class.GrowableArrayBase, ptr }

@g_assert_poison = external global ptr, align 8
@.str = private unnamed_addr constant [41 x i8] c"src/hotspot/share/opto/constantTable.cpp\00", align 1

; Function Attrs: mustprogress nounwind uwtable
define linkonce_odr hidden noundef i64 @_Z10jlong_castd(double noundef %0) #1 comdat {
  %2 = alloca double, align 8
  store double %0, ptr %2, align 8
  %3 = load i64, ptr %2, align 8
  ret i64 %3
}

; Function Attrs: mustprogress nounwind uwtable
define linkonce_odr hidden noundef i32 @_Z9jint_castf(float noundef %0) #1 comdat {
  %2 = alloca float, align 4
  store float %0, ptr %2, align 4
  %3 = load i32, ptr %2, align 4
  ret i32 %3
}

; Function Attrs: mustprogress nounwind uwtable
define linkonce_odr hidden noundef nonnull align 8 dereferenceable(8) ptr @_ZN17GrowableArrayViewI6jvalueE2atEi(ptr noundef nonnull align 8 dereferenceable(16) %0, i32 noundef %1) #1 comdat align 2 {
  %3 = alloca ptr, align 8
  %4 = alloca i32, align 4
  store ptr %0, ptr %3, align 8
  store i32 %1, ptr %4, align 4
  %5 = load ptr, ptr %3, align 8
  %6 = getelementptr inbounds %class.GrowableArrayView, ptr %5, i32 0, i32 1
  %7 = load ptr, ptr %6, align 8
  %8 = load i32, ptr %4, align 4
  %9 = sext i32 %8 to i64
  %10 = getelementptr inbounds %union.jvalue, ptr %7, i64 %9
  ret ptr %10
}

; Function Attrs: mustprogress nounwind uwtable
define linkonce_odr hidden noundef i32 @_ZNK17GrowableArrayBase6lengthEv(ptr noundef nonnull align 4 dereferenceable(8) %0) #1 comdat align 2 {
  %2 = alloca ptr, align 8
  store ptr %0, ptr %2, align 8
  %3 = load ptr, ptr %2, align 8
  %4 = getelementptr inbounds %class.GrowableArrayBase, ptr %3, i32 0, i32 0
  %5 = load i32, ptr %4, align 4
  ret i32 %5
}

; Function Attrs: mustprogress nounwind uwtable
define linkonce_odr hidden noundef ptr @_ZNK13ConstantTable8Constant9get_arrayEv(ptr noundef nonnull align 8 dereferenceable(25) %0) #1 comdat align 2 {
  %2 = alloca ptr, align 8
  store ptr %0, ptr %2, align 8
  %3 = load ptr, ptr %2, align 8
  %4 = getelementptr inbounds %"class.ConstantTable::Constant", ptr %3, i32 0, i32 4
  %5 = load ptr, ptr %4, align 8
  ret ptr %5
}

; Function Attrs: mustprogress nounwind uwtable
define linkonce_odr hidden noundef zeroext i1 @_ZNK13ConstantTable8Constant8is_arrayEv(ptr noundef nonnull align 8 dereferenceable(25) %0) #1 comdat align 2 {
  %2 = alloca ptr, align 8
  store ptr %0, ptr %2, align 8
  %3 = load ptr, ptr %2, align 8
  %4 = getelementptr inbounds %"class.ConstantTable::Constant", ptr %3, i32 0, i32 1
  %5 = load i8, ptr %4, align 1
  %6 = trunc i8 %5 to i1
  ret i1 %6
}

; Function Attrs: mustprogress nounwind uwtable
define linkonce_odr hidden noundef zeroext i1 @_ZNK13ConstantTable8Constant13can_be_reusedEv(ptr noundef nonnull align 8 dereferenceable(25) %0) #1 comdat align 2 {
  %2 = alloca ptr, align 8
  store ptr %0, ptr %2, align 8
  %3 = load ptr, ptr %2, align 8
  %4 = getelementptr inbounds %"class.ConstantTable::Constant", ptr %3, i32 0, i32 7
  %5 = load i8, ptr %4, align 8
  %6 = trunc i8 %5 to i1
  ret i1 %6
}

; Function Attrs: mustprogress nounwind uwtable
define linkonce_odr hidden noundef zeroext i8 @_ZNK13ConstantTable8Constant4typeEv(ptr noundef nonnull align 8 dereferenceable(25) %0) #1 comdat align 2 {
  %2 = alloca ptr, align 8
  store ptr %0, ptr %2, align 8
  %3 = load ptr, ptr %2, align 8
  %4 = getelementptr inbounds %"class.ConstantTable::Constant", ptr %3, i32 0, i32 0
  %5 = load i8, ptr %4, align 8
  ret i8 %5
}

; Function Attrs: mustprogress nounwind uwtable
define hidden noundef zeroext i1 @_ZN13ConstantTable8ConstanteqERKS0_(ptr noundef nonnull align 8 dereferenceable(25) %0, ptr noundef nonnull align 8 dereferenceable(25) %1) #1 align 2 {
  %3 = alloca i1, align 1
  %4 = alloca ptr, align 8
  %5 = alloca ptr, align 8
  %6 = alloca i32, align 4
  %7 = alloca %union.jvalue, align 8
  %8 = alloca %union.jvalue, align 8
  %9 = alloca i8, align 1
  store ptr %0, ptr %4, align 8
  store ptr %1, ptr %5, align 8
  %10 = load ptr, ptr %4, align 8
  %11 = call noundef zeroext i8 @_ZNK13ConstantTable8Constant4typeEv(ptr noundef nonnull align 8 dereferenceable(25) %10)
  %12 = zext i8 %11 to i32
  %13 = load ptr, ptr %5, align 8
  %14 = call noundef zeroext i8 @_ZNK13ConstantTable8Constant4typeEv(ptr noundef nonnull align 8 dereferenceable(25) %13)
  %15 = zext i8 %14 to i32
  %16 = icmp ne i32 %12, %15
  br i1 %16, label %17, label %18

17:                                               ; preds = %2
  store i1 false, ptr %3, align 1
  br label %187

18:                                               ; preds = %2
  %19 = call noundef zeroext i1 @_ZNK13ConstantTable8Constant13can_be_reusedEv(ptr noundef nonnull align 8 dereferenceable(25) %10)
  %20 = zext i1 %19 to i32
  %21 = load ptr, ptr %5, align 8
  %22 = call noundef zeroext i1 @_ZNK13ConstantTable8Constant13can_be_reusedEv(ptr noundef nonnull align 8 dereferenceable(25) %21)
  %23 = zext i1 %22 to i32
  %24 = icmp ne i32 %20, %23
  br i1 %24, label %25, label %26

25:                                               ; preds = %18
  store i1 false, ptr %3, align 1
  br label %187

26:                                               ; preds = %18
  %27 = call noundef zeroext i1 @_ZNK13ConstantTable8Constant8is_arrayEv(ptr noundef nonnull align 8 dereferenceable(25) %10)
  br i1 %27, label %31, label %28

28:                                               ; preds = %26
  %29 = load ptr, ptr %5, align 8
  %30 = call noundef zeroext i1 @_ZNK13ConstantTable8Constant8is_arrayEv(ptr noundef nonnull align 8 dereferenceable(25) %29)
  br i1 %30, label %31, label %127

31:                                               ; preds = %28, %26
  %32 = call noundef zeroext i1 @_ZNK13ConstantTable8Constant8is_arrayEv(ptr noundef nonnull align 8 dereferenceable(25) %10)
  %33 = zext i1 %32 to i32
  %34 = load ptr, ptr %5, align 8
  %35 = call noundef zeroext i1 @_ZNK13ConstantTable8Constant8is_arrayEv(ptr noundef nonnull align 8 dereferenceable(25) %34)
  %36 = zext i1 %35 to i32
  %37 = icmp ne i32 %33, %36
  br i1 %37, label %45, label %38

38:                                               ; preds = %31
  %39 = call noundef ptr @_ZNK13ConstantTable8Constant9get_arrayEv(ptr noundef nonnull align 8 dereferenceable(25) %10)
  %40 = call noundef i32 @_ZNK17GrowableArrayBase6lengthEv(ptr noundef nonnull align 4 dereferenceable(8) %39)
  %41 = load ptr, ptr %5, align 8
  %42 = call noundef ptr @_ZNK13ConstantTable8Constant9get_arrayEv(ptr noundef nonnull align 8 dereferenceable(25) %41)
  %43 = call noundef i32 @_ZNK17GrowableArrayBase6lengthEv(ptr noundef nonnull align 4 dereferenceable(8) %42)
  %44 = icmp ne i32 %40, %43
  br i1 %44, label %45, label %46

45:                                               ; preds = %38, %31
  store i1 false, ptr %3, align 1
  br label %187

46:                                               ; preds = %38
  store i32 0, ptr %6, align 4
  br label %47

47:                                               ; preds = %123, %46
  %48 = load i32, ptr %6, align 4
  %49 = call noundef ptr @_ZNK13ConstantTable8Constant9get_arrayEv(ptr noundef nonnull align 8 dereferenceable(25) %10)
  %50 = call noundef i32 @_ZNK17GrowableArrayBase6lengthEv(ptr noundef nonnull align 4 dereferenceable(8) %49)
  %51 = icmp slt i32 %48, %50
  br i1 %51, label %52, label %126

52:                                               ; preds = %47
  %53 = call noundef ptr @_ZNK13ConstantTable8Constant9get_arrayEv(ptr noundef nonnull align 8 dereferenceable(25) %10)
  %54 = load i32, ptr %6, align 4
  %55 = call noundef nonnull align 8 dereferenceable(8) ptr @_ZN17GrowableArrayViewI6jvalueE2atEi(ptr noundef nonnull align 8 dereferenceable(16) %53, i32 noundef %54)
  call void @llvm.memcpy.p0.p0.i64(ptr align 8 %7, ptr align 8 %55, i64 8, i1 false)
  %56 = load ptr, ptr %5, align 8
  %57 = call noundef ptr @_ZNK13ConstantTable8Constant9get_arrayEv(ptr noundef nonnull align 8 dereferenceable(25) %56)
  %58 = load i32, ptr %6, align 4
  %59 = call noundef nonnull align 8 dereferenceable(8) ptr @_ZN17GrowableArrayViewI6jvalueE2atEi(ptr noundef nonnull align 8 dereferenceable(16) %57, i32 noundef %58)
  call void @llvm.memcpy.p0.p0.i64(ptr align 8 %8, ptr align 8 %59, i64 8, i1 false)
  %60 = call noundef zeroext i8 @_ZNK13ConstantTable8Constant4typeEv(ptr noundef nonnull align 8 dereferenceable(25) %10)
  %61 = zext i8 %60 to i32
  switch i32 %61, label %114 [
    i32 4, label %62
    i32 8, label %69
    i32 5, label %76
    i32 9, label %83
    i32 10, label %90
    i32 11, label %95
    i32 6, label %100
    i32 7, label %107
  ]

62:                                               ; preds = %52
  %63 = load i8, ptr %7, align 8
  %64 = zext i8 %63 to i32
  %65 = load i8, ptr %8, align 8
  %66 = zext i8 %65 to i32
  %67 = icmp eq i32 %64, %66
  %68 = zext i1 %67 to i8
  store i8 %68, ptr %9, align 1
  br label %118

69:                                               ; preds = %52
  %70 = load i8, ptr %7, align 8
  %71 = sext i8 %70 to i32
  %72 = load i8, ptr %8, align 8
  %73 = sext i8 %72 to i32
  %74 = icmp eq i32 %71, %73
  %75 = zext i1 %74 to i8
  store i8 %75, ptr %9, align 1
  br label %118

76:                                               ; preds = %52
  %77 = load i16, ptr %7, align 8
  %78 = zext i16 %77 to i32
  %79 = load i16, ptr %8, align 8
  %80 = zext i16 %79 to i32
  %81 = icmp eq i32 %78, %80
  %82 = zext i1 %81 to i8
  store i8 %82, ptr %9, align 1
  br label %118

83:                                               ; preds = %52
  %84 = load i16, ptr %7, align 8
  %85 = sext i16 %84 to i32
  %86 = load i16, ptr %8, align 8
  %87 = sext i16 %86 to i32
  %88 = icmp eq i32 %85, %87
  %89 = zext i1 %88 to i8
  store i8 %89, ptr %9, align 1
  br label %118

90:                                               ; preds = %52
  %91 = load i32, ptr %7, align 8
  %92 = load i32, ptr %8, align 8
  %93 = icmp eq i32 %91, %92
  %94 = zext i1 %93 to i8
  store i8 %94, ptr %9, align 1
  br label %118

95:                                               ; preds = %52
  %96 = load i64, ptr %7, align 8
  %97 = load i64, ptr %8, align 8
  %98 = icmp eq i64 %96, %97
  %99 = zext i1 %98 to i8
  store i8 %99, ptr %9, align 1
  br label %118

100:                                              ; preds = %52
  %101 = load float, ptr %7, align 8
  %102 = call noundef i32 @_Z9jint_castf(float noundef %101)
  %103 = load float, ptr %8, align 8
  %104 = call noundef i32 @_Z9jint_castf(float noundef %103)
  %105 = icmp eq i32 %102, %104
  %106 = zext i1 %105 to i8
  store i8 %106, ptr %9, align 1
  br label %118

107:                                              ; preds = %52
  %108 = load double, ptr %7, align 8
  %109 = call noundef i64 @_Z10jlong_castd(double noundef %108)
  %110 = load double, ptr %8, align 8
  %111 = call noundef i64 @_Z10jlong_castd(double noundef %110)
  %112 = icmp eq i64 %109, %111
  %113 = zext i1 %112 to i8
  store i8 %113, ptr %9, align 1
  br label %118

114:                                              ; preds = %52
  br label %115

115:                                              ; preds = %114
  %116 = load ptr, ptr @g_assert_poison, align 8
  store i8 88, ptr %116, align 1
  call void @_Z28report_should_not_reach_herePKci(ptr noundef @.str, i32 noundef 56) #7
  unreachable

117:                                              ; No predecessors!
  store i8 0, ptr %9, align 1
  br label %118

118:                                              ; preds = %117, %107, %100, %95, %90, %83, %76, %69, %62
  %119 = load i8, ptr %9, align 1
  %120 = trunc i8 %119 to i1
  br i1 %120, label %122, label %121

121:                                              ; preds = %118
  store i1 false, ptr %3, align 1
  br label %187

122:                                              ; preds = %118
  br label %123

123:                                              ; preds = %122
  %124 = load i32, ptr %6, align 4
  %125 = add nsw i32 %124, 1
  store i32 %125, ptr %6, align 4
  br label %47, !llvm.loop !6

126:                                              ; preds = %47
  store i1 true, ptr %3, align 1
  br label %187

127:                                              ; preds = %28
  %128 = call noundef zeroext i8 @_ZNK13ConstantTable8Constant4typeEv(ptr noundef nonnull align 8 dereferenceable(25) %10)
  %129 = zext i8 %128 to i32
  switch i32 %129, label %183 [
    i32 10, label %130
    i32 6, label %137
    i32 11, label %146
    i32 7, label %153
    i32 12, label %162
    i32 15, label %162
    i32 14, label %169
    i32 17, label %176
  ]

130:                                              ; preds = %127
  %131 = getelementptr inbounds %"class.ConstantTable::Constant", ptr %10, i32 0, i32 4
  %132 = load i32, ptr %131, align 8
  %133 = load ptr, ptr %5, align 8
  %134 = getelementptr inbounds %"class.ConstantTable::Constant", ptr %133, i32 0, i32 4
  %135 = load i32, ptr %134, align 8
  %136 = icmp eq i32 %132, %135
  store i1 %136, ptr %3, align 1
  br label %187

137:                                              ; preds = %127
  %138 = getelementptr inbounds %"class.ConstantTable::Constant", ptr %10, i32 0, i32 4
  %139 = load float, ptr %138, align 8
  %140 = call noundef i32 @_Z9jint_castf(float noundef %139)
  %141 = load ptr, ptr %5, align 8
  %142 = getelementptr inbounds %"class.ConstantTable::Constant", ptr %141, i32 0, i32 4
  %143 = load float, ptr %142, align 8
  %144 = call noundef i32 @_Z9jint_castf(float noundef %143)
  %145 = icmp eq i32 %140, %144
  store i1 %145, ptr %3, align 1
  br label %187

146:                                              ; preds = %127
  %147 = getelementptr inbounds %"class.ConstantTable::Constant", ptr %10, i32 0, i32 4
  %148 = load i64, ptr %147, align 8
  %149 = load ptr, ptr %5, align 8
  %150 = getelementptr inbounds %"class.ConstantTable::Constant", ptr %149, i32 0, i32 4
  %151 = load i64, ptr %150, align 8
  %152 = icmp eq i64 %148, %151
  store i1 %152, ptr %3, align 1
  br label %187

153:                                              ; preds = %127
  %154 = getelementptr inbounds %"class.ConstantTable::Constant", ptr %10, i32 0, i32 4
  %155 = load double, ptr %154, align 8
  %156 = call noundef i64 @_Z10jlong_castd(double noundef %155)
  %157 = load ptr, ptr %5, align 8
  %158 = getelementptr inbounds %"class.ConstantTable::Constant", ptr %157, i32 0, i32 4
  %159 = load double, ptr %158, align 8
  %160 = call noundef i64 @_Z10jlong_castd(double noundef %159)
  %161 = icmp eq i64 %156, %160
  store i1 %161, ptr %3, align 1
  br label %187

162:                                              ; preds = %127, %127
  %163 = getelementptr inbounds %"class.ConstantTable::Constant", ptr %10, i32 0, i32 4
  %164 = load ptr, ptr %163, align 8
  %165 = load ptr, ptr %5, align 8
  %166 = getelementptr inbounds %"class.ConstantTable::Constant", ptr %165, i32 0, i32 4
  %167 = load ptr, ptr %166, align 8
  %168 = icmp eq ptr %164, %167
  store i1 %168, ptr %3, align 1
  br label %187

169:                                              ; preds = %127
  %170 = getelementptr inbounds %"class.ConstantTable::Constant", ptr %10, i32 0, i32 4
  %171 = load ptr, ptr %170, align 8
  %172 = load ptr, ptr %5, align 8
  %173 = getelementptr inbounds %"class.ConstantTable::Constant", ptr %172, i32 0, i32 4
  %174 = load ptr, ptr %173, align 8
  %175 = icmp eq ptr %171, %174
  store i1 %175, ptr %3, align 1
  br label %187

176:                                              ; preds = %127
  %177 = getelementptr inbounds %"class.ConstantTable::Constant", ptr %10, i32 0, i32 4
  %178 = load ptr, ptr %177, align 8
  %179 = load ptr, ptr %5, align 8
  %180 = getelementptr inbounds %"class.ConstantTable::Constant", ptr %179, i32 0, i32 4
  %181 = load ptr, ptr %180, align 8
  %182 = icmp eq ptr %178, %181
  store i1 %182, ptr %3, align 1
  br label %187

183:                                              ; preds = %127
  br label %184

184:                                              ; preds = %183
  %185 = load ptr, ptr @g_assert_poison, align 8
  store i8 88, ptr %185, align 1
  call void @_Z28report_should_not_reach_herePKci(ptr noundef @.str, i32 noundef 74) #7
  unreachable

186:                                              ; No predecessors!
  store i1 false, ptr %3, align 1
  br label %187

187:                                              ; preds = %186, %176, %169, %162, %153, %146, %137, %130, %126, %121, %45, %25, %17
  %188 = load i1, ptr %3, align 1
  ret i1 %188
}